target datalayout = "e-m:e-p270:32:32-p271:32:32-p272:64:64-i64:64-i128:128-f80:128-n8:16:32:64-S128"
target triple = "x86_64-pc-linux-gnu"

; Function Attrs: nounwind uwtable
define internal void @premultiply8offset(ptr noundef %0, ptr noundef %1, ptr noundef %2, i64 noundef %3, i64 noundef %4, i64 noundef %5, i32 noundef %6, i32 noundef %7, i32 noundef %8, i32 noundef %9, i32 noundef %10) #1 {
  %12 = alloca ptr, align 8
  %13 = alloca ptr, align 8
  %14 = alloca ptr, align 8
  %15 = alloca i64, align 8
  %16 = alloca i64, align 8
  %17 = alloca i64, align 8
  %18 = alloca i32, align 4
  %19 = alloca i32, align 4
  %20 = alloca i32, align 4
  %21 = alloca i32, align 4
  %22 = alloca i32, align 4
  %23 = alloca i32, align 4
  %24 = alloca i32, align 4
  store ptr %0, ptr %12, align 8, !tbaa !91
  store ptr %1, ptr %13, align 8, !tbaa !91
  store ptr %2, ptr %14, align 8, !tbaa !91
  store i64 %3, ptr %15, align 8, !tbaa !50
  store i64 %4, ptr %16, align 8, !tbaa !50
  store i64 %5, ptr %17, align 8, !tbaa !50
  store i32 %6, ptr %18, align 4, !tbaa !37
  store i32 %7, ptr %19, align 4, !tbaa !37
  store i32 %8, ptr %20, align 4, !tbaa !37
  store i32 %9, ptr %21, align 4, !tbaa !37
  store i32 %10, ptr %22, align 4, !tbaa !37
  call void @llvm.lifetime.start.p0(i64 4, ptr %23) #11
  call void @llvm.lifetime.start.p0(i64 4, ptr %24) #11
  store i32 0, ptr %24, align 4, !tbaa !37
  br label %25

25:                                               ; preds = %81, %11
  %26 = load i32, ptr %24, align 4, !tbaa !37
  %27 = load i32, ptr %19, align 4, !tbaa !37
  %28 = icmp slt i32 %26, %27
  br i1 %28, label %29, label %84

29:                                               ; preds = %25
  store i32 0, ptr %23, align 4, !tbaa !37
  br label %30

30:                                               ; preds = %68, %29
  %31 = load i32, ptr %23, align 4, !tbaa !37
  %32 = load i32, ptr %18, align 4, !tbaa !37
  %33 = icmp slt i32 %31, %32
  br i1 %33, label %34, label %71

34:                                               ; preds = %30
  %35 = load ptr, ptr %12, align 8, !tbaa !91
  %36 = load i32, ptr %23, align 4, !tbaa !37
  %37 = sext i32 %36 to i64
  %38 = getelementptr inbounds i8, ptr %35, i64 %37
  %39 = load i8, ptr %38, align 1, !tbaa !92
  %40 = zext i8 %39 to i32
  %41 = load i32, ptr %22, align 4, !tbaa !37
  %42 = sub nsw i32 %40, %41
  %43 = load ptr, ptr %13, align 8, !tbaa !91
  %44 = load i32, ptr %23, align 4, !tbaa !37
  %45 = sext i32 %44 to i64
  %46 = getelementptr inbounds i8, ptr %43, i64 %45
  %47 = load i8, ptr %46, align 1, !tbaa !92
  %48 = zext i8 %47 to i32
  %49 = ashr i32 %48, 1
  %50 = and i32 %49, 1
  %51 = load ptr, ptr %13, align 8, !tbaa !91
  %52 = load i32, ptr %23, align 4, !tbaa !37
  %53 = sext i32 %52 to i64
  %54 = getelementptr inbounds i8, ptr %51, i64 %53
  %55 = load i8, ptr %54, align 1, !tbaa !92
  %56 = zext i8 %55 to i32
  %57 = add nsw i32 %50, %56
  %58 = mul nsw i32 %42, %57
  %59 = add nsw i32 %58, 128
  %60 = ashr i32 %59, 8
  %61 = load i32, ptr %22, align 4, !tbaa !37
  %62 = add nsw i32 %60, %61
  %63 = trunc i32 %62 to i8
  %64 = load ptr, ptr %14, align 8, !tbaa !91
  %65 = load i32, ptr %23, align 4, !tbaa !37
  %66 = sext i32 %65 to i64
  %67 = getelementptr inbounds i8, ptr %64, i64 %66
  store i8 %63, ptr %67, align 1, !tbaa !92
  br label %68

68:                                               ; preds = %34
  %69 = load i32, ptr %23, align 4, !tbaa !37
  %70 = add nsw i32 %69, 1
  store i32 %70, ptr %23, align 4, !tbaa !37
  br label %30, !llvm.loop !119

71:                                               ; preds = %30
  %72 = load i64, ptr %17, align 8, !tbaa !50
  %73 = load ptr, ptr %14, align 8, !tbaa !91
  %74 = getelementptr inbounds i8, ptr %73, i64 %72
  store ptr %74, ptr %14, align 8, !tbaa !91
  %75 = load i64, ptr %15, align 8, !tbaa !50
  %76 = load ptr, ptr %12, align 8, !tbaa !91
  %77 = getelementptr inbounds i8, ptr %76, i64 %75
  store ptr %77, ptr %12, align 8, !tbaa !91
  %78 = load i64, ptr %16, align 8, !tbaa !50
  %79 = load ptr, ptr %13, align 8, !tbaa !91
  %80 = getelementptr inbounds i8, ptr %79, i64 %78
  store ptr %80, ptr %13, align 8, !tbaa !91
  br label %81

81:                                               ; preds = %71
  %82 = load i32, ptr %24, align 4, !tbaa !37
  %83 = add nsw i32 %82, 1
  store i32 %83, ptr %24, align 4, !tbaa !37
  br label %25, !llvm.loop !120

84:                                               ; preds = %25
  call void @llvm.lifetime.end.p0(i64 4, ptr %24) #11
  call void @llvm.lifetime.end.p0(i64 4, ptr %23) #11
  ret void
}