; Function Attrs: nofree norecurse nosync nounwind memory(argmem: readwrite) uwtable
define internal void @premultiply8offset(ptr noundef readonly captures(none) %0, ptr noundef readonly captures(none) %1, ptr noundef writeonly captures(none) %2, i64 noundef %3, i64 noundef %4, i64 noundef %5, i32 noundef %6, i32 noundef %7, i32 %8, i32 %9, i32 noundef %10) #5 {
  %12 = icmp sgt i32 %7, 0
  %13 = icmp sgt i32 %6, 0
  %or.cond = and i1 %12, %13
  br i1 %or.cond, label %.preheader.us.preheader, label %._crit_edge30

.preheader.us.preheader:                          ; preds = %11
  %wide.trip.count = zext nneg i32 %6 to i64
  br label %.preheader.us

.preheader.us:                                    ; preds = %.preheader.us.preheader, %._crit_edge.us
  %.029.us = phi i32 [ %34, %._crit_edge.us ], [ 0, %.preheader.us.preheader ]
  %.02228.us = phi ptr [ %32, %._crit_edge.us ], [ %0, %.preheader.us.preheader ]
  %.02327.us = phi ptr [ %33, %._crit_edge.us ], [ %1, %.preheader.us.preheader ]
  %.02426.us = phi ptr [ %31, %._crit_edge.us ], [ %2, %.preheader.us.preheader ]
  br label %14

14:                                               ; preds = %.preheader.us, %14
  %indvars.iv = phi i64 [ 0, %.preheader.us ], [ %indvars.iv.next, %14 ]
  %15 = getelementptr inbounds nuw i8, ptr %.02228.us, i64 %indvars.iv
  %16 = load i8, ptr %15, align 1, !tbaa !78
  %17 = zext i8 %16 to i32
  %18 = sub nsw i32 %17, %10
  %19 = getelementptr inbounds nuw i8, ptr %.02327.us, i64 %indvars.iv
  %20 = load i8, ptr %19, align 1, !tbaa !78
  %21 = zext i8 %20 to i32
  %22 = lshr i32 %21, 1
  %23 = and i32 %22, 1
  %24 = add nuw nsw i32 %23, %21
  %25 = mul nsw i32 %24, %18
  %26 = add nsw i32 %25, 128
  %27 = lshr i32 %26, 8
  %28 = add i32 %27, %10
  %29 = trunc i32 %28 to i8
  %30 = getelementptr inbounds nuw i8, ptr %.02426.us, i64 %indvars.iv
  store i8 %29, ptr %30, align 1, !tbaa !78
  %indvars.iv.next = add nuw nsw i64 %indvars.iv, 1
  %exitcond.not = icmp eq i64 %indvars.iv.next, %wide.trip.count
  br i1 %exitcond.not, label %._crit_edge.us, label %14, !llvm.loop !101

._crit_edge.us:                                   ; preds = %14
  %31 = getelementptr inbounds i8, ptr %.02426.us, i64 %5
  %32 = getelementptr inbounds i8, ptr %.02228.us, i64 %3
  %33 = getelementptr inbounds i8, ptr %.02327.us, i64 %4
  %34 = add nuw nsw i32 %.029.us, 1
  %exitcond33.not = icmp eq i32 %34, %7
  br i1 %exitcond33.not, label %._crit_edge30, label %.preheader.us, !llvm.loop !102

._crit_edge30:                                    ; preds = %._crit_edge.us, %11
  ret void
}